#include <math.h>
#include <stdio.h>
#include <stdlib.h>
#include <string.h>

int main()
{
	int n;
	scanf("%d",&n);
	int i=0;
	do
	{
		char s[256];
		scanf("%s",s);
		int k,len;
		len=strlen(s);
		for(k=0;k<len;k++)
		{
			if(s[k]=='A')
			{
			    s[k]=s[k]-'A'+'T';
			}
			else if(s[k]=='T')
			{
			    s[k]=s[k]-'T'+'A';
			}
			else if(s[k]=='G')
			{
				s[k]=s[k]-'G'+'C';
			}
			else if(s[k]=='C')
			{
				s[k]=s[k]-'C'+'G';
			}
		}
		printf("%s\n",s);
		i++;
	}while(i<n);
	return 0;
}